target datalayout = "e-m:e-p270:32:32-p271:32:32-p272:64:64-i64:64-i128:128-f80:128-n8:16:32:64-S128"
target triple = "x86_64-pc-linux-gnu"

; Function Attrs: nounwind uwtable
define void @sync_dir_recurse(ptr noundef %0, i32 noundef %1) #0 {
  %3 = alloca ptr, align 8
  %4 = alloca i32, align 4
  store ptr %0, ptr %3, align 8
  store i32 %1, ptr %4, align 4
  %5 = load i32, ptr %4, align 4
  switch i32 %5, label %11 [
    i32 1, label %6
    i32 0, label %8
  ]

6:                                                ; preds = %2
  %7 = load ptr, ptr %3, align 8
  call void @do_syncfs(ptr noundef %7)
  br label %11

8:                                                ; preds = %2
  %9 = load ptr, ptr %3, align 8
  call void @walkdir(ptr noundef %9, ptr noundef @pre_sync_fname, i1 noundef zeroext false)
  %10 = load ptr, ptr %3, align 8
  call void @walkdir(ptr noundef %10, ptr noundef @fsync_fname, i1 noundef zeroext false)
  br label %11

11:                                               ; preds = %2, %8, %6
  ret void
}