; Function Attrs: nounwind uwtable
define void @sync_dir_recurse(ptr noundef %0, i32 noundef %1) local_unnamed_addr #0 {
  switch i32 %1, label %5 [
    i32 1, label %3
    i32 0, label %4
  ]

3:                                                ; preds = %2
  tail call fastcc void @do_syncfs(ptr noundef %0)
  br label %5

4:                                                ; preds = %2
  tail call fastcc void @walkdir(ptr noundef %0, ptr noundef nonnull @pre_sync_fname, i1 noundef zeroext false)
  tail call fastcc void @walkdir(ptr noundef %0, ptr noundef nonnull @fsync_fname, i1 noundef zeroext false)
  br label %5

5:                                                ; preds = %4, %3, %2
  ret void
}